; Function Attrs: mustprogress uwtable
define dso_local void @_ZN3net22QuicClientPromisedInfo12CleanupAlarm7OnAlarmEv(ptr nocapture noundef nonnull readonly align 8 dereferenceable(16) %this) unnamed_addr #3 align 2 {
entry:
  %promised_ = getelementptr inbounds i8, ptr %this, i64 8
  %0 = load ptr, ptr %promised_, align 8
  %client_request_delegate_.i = getelementptr inbounds i8, ptr %0, i64 80
  %1 = load ptr, ptr %client_request_delegate_.i, align 8
  %session_.i = getelementptr inbounds i8, ptr %0, i64 8
  %2 = load ptr, ptr %session_.i, align 8
  %id_.i = getelementptr inbounds i8, ptr %0, i64 16
  %3 = load i32, ptr %id_.i, align 8
  tail call void @_ZN3net21QuicClientSessionBase13ResetPromisedEjNS_22QuicRstStreamErrorCodeE(ptr noundef nonnull align 8 dereferenceable(2140) %2, i32 noundef %3, i32 noundef 6)
  %4 = load ptr, ptr %session_.i, align 8
  %vtable.i = load ptr, ptr %4, align 8
  %vfn.i = getelementptr inbounds i8, ptr %vtable.i, i64 440
  %5 = load ptr, ptr %vfn.i, align 8
  tail call void %5(ptr noundef nonnull align 8 dereferenceable(2140) %4, ptr noundef nonnull %0)
  %tobool.not.i = icmp eq ptr %1, null
  br i1 %tobool.not.i, label %_ZN3net22QuicClientPromisedInfo5ResetENS_22QuicRstStreamErrorCodeE.exit, label %if.then.i

if.then.i:                                        ; preds = %entry
  %vtable3.i = load ptr, ptr %1, align 8
  %vfn4.i = getelementptr inbounds i8, ptr %vtable3.i, i64 24
  %6 = load ptr, ptr %vfn4.i, align 8
  tail call void %6(ptr noundef nonnull align 8 dereferenceable(8) %1, ptr noundef null)
  br label %_ZN3net22QuicClientPromisedInfo5ResetENS_22QuicRstStreamErrorCodeE.exit

_ZN3net22QuicClientPromisedInfo5ResetENS_22QuicRstStreamErrorCodeE.exit: ; preds = %entry, %if.then.i
  ret void
}